target datalayout = "e-m:e-p270:32:32-p271:32:32-p272:64:64-i64:64-i128:128-f80:128-n8:16:32:64-S128"
target triple = "x86_64-pc-linux-gnu"

@.str = private unnamed_addr constant [35 x i8] c"../openssl/crypto/pkcs12/p12_key.c\00", align 1
@__func__.PKCS12_key_gen_utf8_ex = private unnamed_addr constant [23 x i8] c"PKCS12_key_gen_utf8_ex\00", align 1

; Function Attrs: nounwind uwtable
define i32 @PKCS12_key_gen_utf8_ex(ptr noundef %0, i32 noundef %1, ptr noundef %2, i32 noundef %3, i32 noundef %4, i32 noundef %5, i32 noundef %6, ptr noundef %7, ptr noundef %8, ptr noundef %9, ptr noundef %10) #0 {
  %12 = alloca i32, align 4
  %13 = alloca ptr, align 8
  %14 = alloca i32, align 4
  %15 = alloca ptr, align 8
  %16 = alloca i32, align 4
  %17 = alloca i32, align 4
  %18 = alloca i32, align 4
  %19 = alloca i32, align 4
  %20 = alloca ptr, align 8
  %21 = alloca ptr, align 8
  %22 = alloca ptr, align 8
  %23 = alloca ptr, align 8
  %24 = alloca i32, align 4
  %25 = alloca ptr, align 8
  %26 = alloca i32, align 4
  %27 = alloca i32, align 4
  store ptr %0, ptr %13, align 8, !tbaa !3
  store i32 %1, ptr %14, align 4, !tbaa !8
  store ptr %2, ptr %15, align 8, !tbaa !3
  store i32 %3, ptr %16, align 4, !tbaa !8
  store i32 %4, ptr %17, align 4, !tbaa !8
  store i32 %5, ptr %18, align 4, !tbaa !8
  store i32 %6, ptr %19, align 4, !tbaa !8
  store ptr %7, ptr %20, align 8, !tbaa !3
  store ptr %8, ptr %21, align 8, !tbaa !10
  store ptr %9, ptr %22, align 8, !tbaa !12
  store ptr %10, ptr %23, align 8, !tbaa !3
  call void @llvm.lifetime.start.p0(i64 4, ptr %24) #4
  call void @llvm.lifetime.start.p0(i64 8, ptr %25) #4
  call void @llvm.lifetime.start.p0(i64 4, ptr %26) #4
  %28 = load ptr, ptr %13, align 8, !tbaa !3
  %29 = icmp eq ptr %28, null
  br i1 %29, label %30, label %31

30:                                               ; preds = %11
  store ptr null, ptr %25, align 8, !tbaa !3
  store i32 0, ptr %26, align 4, !tbaa !8
  br label %38

31:                                               ; preds = %11
  %32 = load ptr, ptr %13, align 8, !tbaa !3
  %33 = load i32, ptr %14, align 4, !tbaa !8
  %34 = call ptr @OPENSSL_utf82uni(ptr noundef %32, i32 noundef %33, ptr noundef %25, ptr noundef %26)
  %35 = icmp ne ptr %34, null
  br i1 %35, label %37, label %36

36:                                               ; preds = %31
  call void @ERR_new()
  call void @ERR_set_debug(ptr noundef @.str, i32 noundef 62, ptr noundef @__func__.PKCS12_key_gen_utf8_ex)
  call void (i32, i32, ptr, ...) @ERR_set_error(i32 noundef 35, i32 noundef 524323, ptr noundef null)
  store i32 0, ptr %12, align 4
  store i32 1, ptr %27, align 4
  br label %57

37:                                               ; preds = %31
  br label %38

38:                                               ; preds = %37, %30
  %39 = load ptr, ptr %25, align 8, !tbaa !3
  %40 = load i32, ptr %26, align 4, !tbaa !8
  %41 = load ptr, ptr %15, align 8, !tbaa !3
  %42 = load i32, ptr %16, align 4, !tbaa !8
  %43 = load i32, ptr %17, align 4, !tbaa !8
  %44 = load i32, ptr %18, align 4, !tbaa !8
  %45 = load i32, ptr %19, align 4, !tbaa !8
  %46 = load ptr, ptr %20, align 8, !tbaa !3
  %47 = load ptr, ptr %21, align 8, !tbaa !10
  %48 = load ptr, ptr %22, align 8, !tbaa !12
  %49 = load ptr, ptr %23, align 8, !tbaa !3
  %50 = call i32 @PKCS12_key_gen_uni_ex(ptr noundef %39, i32 noundef %40, ptr noundef %41, i32 noundef %42, i32 noundef %43, i32 noundef %44, i32 noundef %45, ptr noundef %46, ptr noundef %47, ptr noundef %48, ptr noundef %49)
  store i32 %50, ptr %24, align 4, !tbaa !8
  %51 = load ptr, ptr %25, align 8, !tbaa !3
  %52 = load i32, ptr %26, align 4, !tbaa !8
  %53 = sext i32 %52 to i64
  call void @CRYPTO_clear_free(ptr noundef %51, i64 noundef %53, ptr noundef @.str, i32 noundef 67)
  %54 = load i32, ptr %24, align 4, !tbaa !8
  %55 = icmp sgt i32 %54, 0
  %56 = zext i1 %55 to i32
  store i32 %56, ptr %12, align 4
  store i32 1, ptr %27, align 4
  br label %57

57:                                               ; preds = %38, %36
  call void @llvm.lifetime.end.p0(i64 4, ptr %26) #4
  call void @llvm.lifetime.end.p0(i64 8, ptr %25) #4
  call void @llvm.lifetime.end.p0(i64 4, ptr %24) #4
  %58 = load i32, ptr %12, align 4
  ret i32 %58
}