; Function Attrs: nounwind uwtable
define range(i32 0, 2) i32 @PKCS12_key_gen_utf8_ex(ptr noundef %0, i32 noundef %1, ptr noundef %2, i32 noundef %3, i32 noundef %4, i32 noundef %5, i32 noundef %6, ptr noundef %7, ptr noundef %8, ptr noundef %9, ptr noundef %10) local_unnamed_addr #0 {
  %12 = alloca ptr, align 8
  %13 = alloca i32, align 4
  call void @llvm.lifetime.start.p0(i64 8, ptr nonnull %12) #4
  call void @llvm.lifetime.start.p0(i64 4, ptr nonnull %13) #4
  %14 = icmp eq ptr %0, null
  br i1 %14, label %15, label %16

15:                                               ; preds = %11
  store ptr null, ptr %12, align 8, !tbaa !3
  store i32 0, ptr %13, align 4, !tbaa !8
  br label %19

16:                                               ; preds = %11
  %17 = call ptr @OPENSSL_utf82uni(ptr noundef nonnull %0, i32 noundef %1, ptr noundef nonnull %12, ptr noundef nonnull %13) #4
  %.not = icmp eq ptr %17, null
  br i1 %.not, label %18, label %._crit_edge

._crit_edge:                                      ; preds = %16
  %.pre = load ptr, ptr %12, align 8, !tbaa !3
  %.pre14 = load i32, ptr %13, align 4, !tbaa !8
  br label %19

18:                                               ; preds = %16
  call void @ERR_new() #4
  call void @ERR_set_debug(ptr noundef nonnull @.str, i32 noundef 62, ptr noundef nonnull @__func__.PKCS12_key_gen_utf8_ex) #4
  call void (i32, i32, ptr, ...) @ERR_set_error(i32 noundef 35, i32 noundef 524323, ptr noundef null) #4
  br label %26

19:                                               ; preds = %._crit_edge, %15
  %20 = phi i32 [ %.pre14, %._crit_edge ], [ 0, %15 ]
  %21 = phi ptr [ %.pre, %._crit_edge ], [ null, %15 ]
  %22 = call i32 @PKCS12_key_gen_uni_ex(ptr noundef %21, i32 noundef %20, ptr noundef %2, i32 noundef %3, i32 noundef %4, i32 noundef %5, i32 noundef %6, ptr noundef %7, ptr noundef %8, ptr noundef %9, ptr noundef %10)
  %23 = load ptr, ptr %12, align 8, !tbaa !3
  %24 = load i32, ptr %13, align 4, !tbaa !8
  %25 = sext i32 %24 to i64
  call void @CRYPTO_clear_free(ptr noundef %23, i64 noundef %25, ptr noundef nonnull @.str, i32 noundef 67) #4
  br label %26

26:                                               ; preds = %19, %18
  %.0 = phi i32 [ %22, %19 ], [ 0, %18 ]
  call void @llvm.lifetime.end.p0(i64 4, ptr nonnull %13) #4
  call void @llvm.lifetime.end.p0(i64 8, ptr nonnull %12) #4
  ret i32 %.0
}